; Function Attrs: mustprogress nofree norecurse nosync nounwind willreturn memory(read, inaccessiblemem: none) uwtable
define noundef range(i32 0, 2) i32 @_Z33glucose2_solver_read_cex_varvaluePN6Gluco210SimpSolverEi(ptr noundef readonly captures(none) %0, i32 noundef %1) local_unnamed_addr #6 {
  %3 = getelementptr inbounds nuw i8, ptr %0, i64 96
  %4 = load ptr, ptr %3, align 8, !tbaa !58
  %5 = sext i32 %1 to i64
  %6 = getelementptr inbounds %"class.Gluco2::lbool", ptr %4, i64 %5
  %7 = load i8, ptr %6, align 1, !tbaa !59
  %8 = icmp eq i8 %7, 0
  %9 = zext i1 %8 to i32
  ret i32 %9
}